target datalayout = "e-m:e-p270:32:32-p271:32:32-p272:64:64-i64:64-i128:128-f80:128-n8:16:32:64-S128"
target triple = "x86_64-pc-linux-gnu"

%struct.pg_hmac_ctx = type { ptr, i32, i32, ptr, i32, i32, [128 x i8], [128 x i8] }

; Function Attrs: nounwind uwtable
define dso_local ptr @pg_hmac_create(i32 noundef %0) #0 {
  %2 = alloca ptr, align 8
  %3 = alloca i32, align 4
  %4 = alloca ptr, align 8
  %5 = alloca i32, align 4
  store i32 %0, ptr %3, align 4
  call void @llvm.lifetime.start.p0(i64 8, ptr %4) #5
  %6 = call ptr @palloc(i64 noundef 288)
  store ptr %6, ptr %4, align 8
  %7 = load ptr, ptr %4, align 8
  %8 = icmp eq ptr %7, null
  br i1 %8, label %9, label %10

9:                                                ; preds = %1
  store ptr null, ptr %2, align 8
  store i32 1, ptr %5, align 4
  br label %64

10:                                               ; preds = %1
  %11 = load ptr, ptr %4, align 8
  call void @llvm.memset.p0.i64(ptr align 8 %11, i8 0, i64 288, i1 false)
  %12 = load i32, ptr %3, align 4
  %13 = load ptr, ptr %4, align 8
  %14 = getelementptr inbounds nuw %struct.pg_hmac_ctx, ptr %13, i32 0, i32 1
  store i32 %12, ptr %14, align 8
  %15 = load ptr, ptr %4, align 8
  %16 = getelementptr inbounds nuw %struct.pg_hmac_ctx, ptr %15, i32 0, i32 2
  store i32 0, ptr %16, align 4
  %17 = load ptr, ptr %4, align 8
  %18 = getelementptr inbounds nuw %struct.pg_hmac_ctx, ptr %17, i32 0, i32 3
  store ptr null, ptr %18, align 8
  %19 = load i32, ptr %3, align 4
  switch i32 %19, label %50 [
    i32 0, label %20
    i32 1, label %25
    i32 2, label %30
    i32 3, label %35
    i32 4, label %40
    i32 5, label %45
  ]

20:                                               ; preds = %10
  %21 = load ptr, ptr %4, align 8
  %22 = getelementptr inbounds nuw %struct.pg_hmac_ctx, ptr %21, i32 0, i32 5
  store i32 16, ptr %22, align 4
  %23 = load ptr, ptr %4, align 8
  %24 = getelementptr inbounds nuw %struct.pg_hmac_ctx, ptr %23, i32 0, i32 4
  store i32 64, ptr %24, align 8
  br label %50

25:                                               ; preds = %10
  %26 = load ptr, ptr %4, align 8
  %27 = getelementptr inbounds nuw %struct.pg_hmac_ctx, ptr %26, i32 0, i32 5
  store i32 20, ptr %27, align 4
  %28 = load ptr, ptr %4, align 8
  %29 = getelementptr inbounds nuw %struct.pg_hmac_ctx, ptr %28, i32 0, i32 4
  store i32 64, ptr %29, align 8
  br label %50

30:                                               ; preds = %10
  %31 = load ptr, ptr %4, align 8
  %32 = getelementptr inbounds nuw %struct.pg_hmac_ctx, ptr %31, i32 0, i32 5
  store i32 28, ptr %32, align 4
  %33 = load ptr, ptr %4, align 8
  %34 = getelementptr inbounds nuw %struct.pg_hmac_ctx, ptr %33, i32 0, i32 4
  store i32 64, ptr %34, align 8
  br label %50

35:                                               ; preds = %10
  %36 = load ptr, ptr %4, align 8
  %37 = getelementptr inbounds nuw %struct.pg_hmac_ctx, ptr %36, i32 0, i32 5
  store i32 32, ptr %37, align 4
  %38 = load ptr, ptr %4, align 8
  %39 = getelementptr inbounds nuw %struct.pg_hmac_ctx, ptr %38, i32 0, i32 4
  store i32 64, ptr %39, align 8
  br label %50

40:                                               ; preds = %10
  %41 = load ptr, ptr %4, align 8
  %42 = getelementptr inbounds nuw %struct.pg_hmac_ctx, ptr %41, i32 0, i32 5
  store i32 48, ptr %42, align 4
  %43 = load ptr, ptr %4, align 8
  %44 = getelementptr inbounds nuw %struct.pg_hmac_ctx, ptr %43, i32 0, i32 4
  store i32 128, ptr %44, align 8
  br label %50

45:                                               ; preds = %10
  %46 = load ptr, ptr %4, align 8
  %47 = getelementptr inbounds nuw %struct.pg_hmac_ctx, ptr %46, i32 0, i32 5
  store i32 64, ptr %47, align 4
  %48 = load ptr, ptr %4, align 8
  %49 = getelementptr inbounds nuw %struct.pg_hmac_ctx, ptr %48, i32 0, i32 4
  store i32 128, ptr %49, align 8
  br label %50

50:                                               ; preds = %10, %45, %40, %35, %30, %25, %20
  %51 = load i32, ptr %3, align 4
  %52 = call ptr @pg_cryptohash_create(i32 noundef %51)
  %53 = load ptr, ptr %4, align 8
  %54 = getelementptr inbounds nuw %struct.pg_hmac_ctx, ptr %53, i32 0, i32 0
  store ptr %52, ptr %54, align 8
  %55 = load ptr, ptr %4, align 8
  %56 = getelementptr inbounds nuw %struct.pg_hmac_ctx, ptr %55, i32 0, i32 0
  %57 = load ptr, ptr %56, align 8
  %58 = icmp eq ptr %57, null
  br i1 %58, label %59, label %62

59:                                               ; preds = %50
  %60 = load ptr, ptr %4, align 8
  call void @explicit_bzero(ptr noundef %60, i64 noundef 288) #5
  %61 = load ptr, ptr %4, align 8
  call void @pfree(ptr noundef %61)
  store ptr null, ptr %2, align 8
  store i32 1, ptr %5, align 4
  br label %64

62:                                               ; preds = %50
  %63 = load ptr, ptr %4, align 8
  store ptr %63, ptr %2, align 8
  store i32 1, ptr %5, align 4
  br label %64

64:                                               ; preds = %62, %59, %9
  call void @llvm.lifetime.end.p0(i64 8, ptr %4) #5
  %65 = load ptr, ptr %2, align 8
  ret ptr %65
}