; Function Attrs: nounwind uwtable
define dso_local ptr @pg_hmac_create(i32 noundef %0) local_unnamed_addr #0 {
  %2 = tail call ptr @palloc(i64 noundef 288) #5
  %3 = icmp eq ptr %2, null
  br i1 %3, label %16, label %4

4:                                                ; preds = %1
  tail call void @llvm.memset.p0.i64(ptr noundef nonnull align 8 dereferenceable(288) %2, i8 0, i64 288, i1 false)
  %5 = getelementptr inbounds nuw i8, ptr %2, i64 8
  store i32 %0, ptr %5, align 8
  %6 = getelementptr inbounds nuw i8, ptr %2, i64 16
  store ptr null, ptr %6, align 8
  %7 = icmp ult i32 %0, 6
  br i1 %7, label %switch.lookup, label %12

switch.lookup:                                    ; preds = %4
  %8 = zext nneg i32 %0 to i64
  %switch.gep = getelementptr inbounds nuw [6 x i32], ptr @switch.table.pg_hmac_create, i64 0, i64 %8
  %switch.load = load i32, ptr %switch.gep, align 4
  %9 = zext nneg i32 %0 to i64
  %switch.gep29 = getelementptr inbounds nuw [6 x i32], ptr @switch.table.pg_hmac_create.1, i64 0, i64 %9
  %switch.load30 = load i32, ptr %switch.gep29, align 4
  %10 = getelementptr inbounds nuw i8, ptr %2, i64 28
  store i32 %switch.load, ptr %10, align 4
  %11 = getelementptr inbounds nuw i8, ptr %2, i64 24
  store i32 %switch.load30, ptr %11, align 8
  br label %12

12:                                               ; preds = %4, %switch.lookup
  %13 = tail call ptr @pg_cryptohash_create(i32 noundef %0) #5
  store ptr %13, ptr %2, align 8
  %14 = icmp eq ptr %13, null
  br i1 %14, label %15, label %16

15:                                               ; preds = %12
  tail call void @explicit_bzero(ptr noundef nonnull %2, i64 noundef 288) #5
  tail call void @pfree(ptr noundef nonnull %2) #5
  br label %16

16:                                               ; preds = %12, %1, %15
  %.0 = phi ptr [ null, %15 ], [ null, %1 ], [ %2, %12 ]
  ret ptr %.0
}